; Function Attrs: mustprogress nofree norecurse nosync nounwind willreturn memory(read, inaccessiblemem: none) uwtable
define hidden noundef zeroext i1 @_ZN4cvc58internal6theory5arith6linear10Constraint12allHaveProofERKSt6vectorIPKS4_SaIS7_EE(ptr nocapture noundef nonnull readonly align 8 dereferenceable(24) %b) local_unnamed_addr #9 align 2 {
entry:
  %0 = load ptr, ptr %b, align 8
  %_M_finish.i = getelementptr inbounds i8, ptr %b, i64 8
  %1 = load ptr, ptr %_M_finish.i, align 8
  %cmp.i.not5 = icmp eq ptr %0, %1
  br i1 %cmp.i.not5, label %return, label %for.body

for.body:                                         ; preds = %entry, %for.body
  %i.sroa.0.06 = phi ptr [ %incdec.ptr.i, %for.body ], [ %0, %entry ]
  %2 = load ptr, ptr %i.sroa.0.06, align 8
  %d_crid.i = getelementptr inbounds i8, ptr %2, i64 120
  %3 = load i64, ptr %d_crid.i, align 8
  %cmp.i2.not.not = icmp ne i64 %3, -1
  %incdec.ptr.i = getelementptr inbounds i8, ptr %i.sroa.0.06, i64 8
  %cmp.i.not = icmp ne ptr %incdec.ptr.i, %1
  %or.cond.not = select i1 %cmp.i2.not.not, i1 %cmp.i.not, i1 false
  br i1 %or.cond.not, label %for.body, label %return, !llvm.loop !213

return:                                           ; preds = %for.body, %entry
  %cmp.i.not.lcssa = phi i1 [ true, %entry ], [ %cmp.i2.not.not, %for.body ]
  ret i1 %cmp.i.not.lcssa
}